target datalayout = "e-m:e-p270:32:32-p271:32:32-p272:64:64-i64:64-i128:128-f80:128-n8:16:32:64-S128"
target triple = "x86_64-pc-linux-gnu"

%"class.Stockfish::Move" = type { i16 }
%"struct.Stockfish::TTEntry" = type { i16, i8, i8, %"class.Stockfish::Move", i16, i16 }
%"class.Stockfish::TranspositionTable" = type <{ i64, ptr, i8, [7 x i8] }>
%"struct.Stockfish::TranspositionTable::Cluster" = type { [3 x %"struct.Stockfish::TTEntry"], [2 x i8] }

; Function Attrs: mustprogress nounwind uwtable
define dso_local noundef i32 @_ZNK9Stockfish18TranspositionTable8hashfullEv(ptr noundef nonnull align 8 dereferenceable(17) %0) #4 align 2 {
  %2 = alloca ptr, align 8
  %3 = alloca i32, align 4
  %4 = alloca i32, align 4
  %5 = alloca i32, align 4
  store ptr %0, ptr %2, align 8
  %6 = load ptr, ptr %2, align 8
  store i32 0, ptr %3, align 4
  store i32 0, ptr %4, align 4
  br label %7

7:                                                ; preds = %54, %1
  %8 = load i32, ptr %4, align 4
  %9 = icmp slt i32 %8, 1000
  br i1 %9, label %10, label %57

10:                                               ; preds = %7
  store i32 0, ptr %5, align 4
  br label %11

11:                                               ; preds = %50, %10
  %12 = load i32, ptr %5, align 4
  %13 = icmp slt i32 %12, 3
  br i1 %13, label %14, label %53

14:                                               ; preds = %11
  %15 = getelementptr inbounds %"class.Stockfish::TranspositionTable", ptr %6, i32 0, i32 1
  %16 = load ptr, ptr %15, align 8
  %17 = load i32, ptr %4, align 4
  %18 = sext i32 %17 to i64
  %19 = getelementptr inbounds %"struct.Stockfish::TranspositionTable::Cluster", ptr %16, i64 %18
  %20 = getelementptr inbounds %"struct.Stockfish::TranspositionTable::Cluster", ptr %19, i32 0, i32 0
  %21 = load i32, ptr %5, align 4
  %22 = sext i32 %21 to i64
  %23 = getelementptr inbounds [3 x %"struct.Stockfish::TTEntry"], ptr %20, i64 0, i64 %22
  %24 = getelementptr inbounds %"struct.Stockfish::TTEntry", ptr %23, i32 0, i32 1
  %25 = load i8, ptr %24, align 2
  %26 = icmp ne i8 %25, 0
  br i1 %26, label %27, label %45

27:                                               ; preds = %14
  %28 = getelementptr inbounds %"class.Stockfish::TranspositionTable", ptr %6, i32 0, i32 1
  %29 = load ptr, ptr %28, align 8
  %30 = load i32, ptr %4, align 4
  %31 = sext i32 %30 to i64
  %32 = getelementptr inbounds %"struct.Stockfish::TranspositionTable::Cluster", ptr %29, i64 %31
  %33 = getelementptr inbounds %"struct.Stockfish::TranspositionTable::Cluster", ptr %32, i32 0, i32 0
  %34 = load i32, ptr %5, align 4
  %35 = sext i32 %34 to i64
  %36 = getelementptr inbounds [3 x %"struct.Stockfish::TTEntry"], ptr %33, i64 0, i64 %35
  %37 = getelementptr inbounds %"struct.Stockfish::TTEntry", ptr %36, i32 0, i32 2
  %38 = load i8, ptr %37, align 1
  %39 = zext i8 %38 to i32
  %40 = and i32 %39, 248
  %41 = getelementptr inbounds %"class.Stockfish::TranspositionTable", ptr %6, i32 0, i32 2
  %42 = load i8, ptr %41, align 8
  %43 = zext i8 %42 to i32
  %44 = icmp eq i32 %40, %43
  br label %45

45:                                               ; preds = %27, %14
  %46 = phi i1 [ false, %14 ], [ %44, %27 ]
  %47 = zext i1 %46 to i32
  %48 = load i32, ptr %3, align 4
  %49 = add nsw i32 %48, %47
  store i32 %49, ptr %3, align 4
  br label %50

50:                                               ; preds = %45
  %51 = load i32, ptr %5, align 4
  %52 = add nsw i32 %51, 1
  store i32 %52, ptr %5, align 4
  br label %11, !llvm.loop !9

53:                                               ; preds = %11
  br label %54

54:                                               ; preds = %53
  %55 = load i32, ptr %4, align 4
  %56 = add nsw i32 %55, 1
  store i32 %56, ptr %4, align 4
  br label %7, !llvm.loop !10

57:                                               ; preds = %7
  %58 = load i32, ptr %3, align 4
  %59 = sdiv i32 %58, 3
  ret i32 %59
}