; Function Attrs: mustprogress nofree norecurse nosync nounwind willreturn memory(read, inaccessiblemem: none) uwtable
define dso_local noundef i32 @_ZNK9Stockfish18TranspositionTable8hashfullEv(ptr nocapture noundef nonnull readonly align 8 dereferenceable(17) %0) local_unnamed_addr #8 align 2 {
  %2 = getelementptr inbounds i8, ptr %0, i64 8
  %3 = load ptr, ptr %2, align 8
  %4 = getelementptr inbounds i8, ptr %0, i64 16
  %5 = load i8, ptr %4, align 8
  br label %.preheader

.preheader:                                       ; preds = %1, %20
  %indvars.iv17 = phi i64 [ 0, %1 ], [ %indvars.iv.next18, %20 ]
  %.01114 = phi i32 [ 0, %1 ], [ %19, %20 ]
  %6 = getelementptr inbounds %"struct.Stockfish::TranspositionTable::Cluster", ptr %3, i64 %indvars.iv17
  br label %7

7:                                                ; preds = %.preheader, %16
  %indvars.iv = phi i64 [ 0, %.preheader ], [ %indvars.iv.next, %16 ]
  %.112 = phi i32 [ %.01114, %.preheader ], [ %19, %16 ]
  %8 = getelementptr inbounds [3 x %"struct.Stockfish::TTEntry"], ptr %6, i64 0, i64 %indvars.iv
  %9 = getelementptr inbounds i8, ptr %8, i64 2
  %10 = load i8, ptr %9, align 2
  %.not = icmp eq i8 %10, 0
  br i1 %.not, label %16, label %11

11:                                               ; preds = %7
  %12 = getelementptr inbounds i8, ptr %8, i64 3
  %13 = load i8, ptr %12, align 1
  %14 = and i8 %13, -8
  %15 = icmp eq i8 %14, %5
  br label %16

16:                                               ; preds = %11, %7
  %17 = phi i1 [ false, %7 ], [ %15, %11 ]
  %18 = zext i1 %17 to i32
  %19 = add nsw i32 %.112, %18
  %indvars.iv.next = add nuw nsw i64 %indvars.iv, 1
  %exitcond.not = icmp eq i64 %indvars.iv.next, 3
  br i1 %exitcond.not, label %20, label %7, !llvm.loop !16

20:                                               ; preds = %16
  %indvars.iv.next18 = add nuw nsw i64 %indvars.iv17, 1
  %exitcond20.not = icmp eq i64 %indvars.iv.next18, 1000
  br i1 %exitcond20.not, label %21, label %.preheader, !llvm.loop !17

21:                                               ; preds = %20
  %22 = sdiv i32 %19, 3
  ret i32 %22
}